(dp0
S'cookies'
p1
(dp2
S'wxloadtime'
p3
S'1503978473_expired'
p4
sS'webwx_data_ticket'
p5
S'gSdZyPDz0Qeodnf9ycE5vRsB'
p6
sS'wxuin'
p7
S'385818347'
p8
sS'login_frequency'
p9
S'2'
p10
sS'MM_WX_NOTIFY_STATE'
p11
S'1'
p12
sS'MM_WX_SOUND_STATE'
p13
g12
sS'webwx_auth_ticket'
p14
S'CIsBEI29hcwJGoABaleqm/7bC8RaxxMpQZXIZxFmy7pnv5EmyoX5fUKlwxFVK4ciTCsJqkJlgKPrBvsHxDH9rxo8tq79jYjNxyABh5vk6cIFV86qomaTH1wzrbrqZeLSAGEZghDCNMHxpeWTYo4IU8hYKk7hjcaQ9RuPeD6NGvN7EtxPvURQz8eVGxk='
p15
sS'last_wxuin'
p16
S'1948060332'
p17
sS'webwxuvid'
p18
S'a90f4ae6328837fabffe2e1025fc4f8566947d17e23b6d7b945bb0e0c5d3e5f02cba2ec5bae70b85a0cafb5cb5ffdd64'
p19
sS'wxpluginkey'
p20
S'1503976677'
p21
sS'wxsid'
p22
S'djr3qx5moybLjnGm'
p23
sS'mm_lang'
p24
S'zh_CN'
p25
ssS'version'
p26
S'1.2.32'
p27
sS'storage'
p28
(dp29
S'userName'
p30
V
p31
sS'lastInputUserName'
p32
NsS'memberList'
p33
(lp34
(dp35
S'UserName'
p36
g31
sS'City'
p37
S''
p38
sS'DisplayName'
p39
g38
sS'UniFriend'
p40
I0
sS'MemberList'
p41
(lp42
sS'PYQuanPin'
p43
g31
sS'RemarkPYInitial'
p44
g31
sS'Sex'
p45
I0
sS'AppAccountFlag'
p46
I0
sS'VerifyFlag'
p47
I0
sS'Province'
p48
g38
sS'KeyWord'
p49
g38
sS'RemarkName'
p50
g31
sS'PYInitial'
p51
g31
sS'ChatRoomId'
p52
I0
sS'HideInputBarFlag'
p53
I0
sVHeadImgFlag
p54
I0
sS'EncryChatRoomId'
p55
g38
sS'AttrStatus'
p56
I0
sVWebWxPluginSwitch
p57
I0
sS'SnsFlag'
p58
I0
sS'MemberCount'
p59
I0
sS'OwnerUin'
p60
I0
sS'Alias'
p61
g38
sS'Signature'
p62
g31
sS'ContactFlag'
p63
I0
sS'NickName'
p64
g31
sS'RemarkPYQuanPin'
p65
g31
sS'HeadImgUrl'
p66
g31
sS'Uin'
p67
I0
sS'StarFriend'
p68
I0
sS'Statues'
p69
I0
sasS'chatroomList'
p70
(lp71
sS'nickName'
p72
g31
sS'mpList'
p73
(lp74
ssS'loginInfo'
p75
(dp76
S'SyncKey'
p77
(dp78
VCount
p79
I0
sVList
p80
(lp81
ssS'syncUrl'
p82
S'https://webpush.wx.qq.com/cgi-bin/mmwebwx-bin'
p83
sS'skey'
p84
V@crypt_398be30d_83a4c9f679b2c7ee06a0f7e456b2e5f0
p85
sS'wxuin'
p86
V385818347
p87
sS'synckey'
p88
g38
sS'url'
p89
Vhttps://wx.qq.com/cgi-bin/mmwebwx-bin
p90
sS'pass_ticket'
p91
Vkopp1%2FbCZEZoMx6wYvEQt2G54uhwE5vegPn36rn2KXs4hW9PAU8TmN8PHRpIDN9Z
p92
sS'wxsid'
p93
Vdjr3qx5moybLjnGm
p94
sS'BaseRequest'
p95
(dp96
g67
g87
sS'Skey'
p97
g85
sS'DeviceID'
p98
g92
sS'Sid'
p99
g94
ssS'deviceid'
p100
S'e423013950229711'
p101
sS'fileUrl'
p102
S'https://file.wx.qq.com/cgi-bin/mmwebwx-bin'
p103
sS'InviteStartCount'
p104
I0
sS'User'
p105
g35
ss.